target datalayout = "e-m:e-p270:32:32-p271:32:32-p272:64:64-i64:64-i128:128-f80:128-n8:16:32:64-S128"
target triple = "x86_64-pc-linux-gnu"

@stderr = external global ptr, align 8
@.str.202 = private unnamed_addr constant [12 x i8] c"-----BEGIN \00", align 1
@.str.203 = private unnamed_addr constant [110 x i8] c"editcap: Warning: \22%s\22 is not a key log file, but an unsupported private key file. Decryption will not work.\0A\00", align 1

; Function Attrs: null_pointer_is_valid sspstrong uwtable
define internal void @validate_secrets_file(ptr noundef %0, i32 noundef %1, ptr noundef %2) #0 {
  %4 = alloca ptr, align 8
  %5 = alloca i32, align 4
  %6 = alloca ptr, align 8
  store ptr %0, ptr %4, align 8
  store i32 %1, ptr %5, align 4
  store ptr %2, ptr %6, align 8
  %7 = load i32, ptr %5, align 4
  %8 = icmp eq i32 %7, 1414288203
  br i1 %8, label %9, label %24

9:                                                ; preds = %3
  %10 = load ptr, ptr %6, align 8
  %11 = call i32 @g_str_has_prefix(ptr noundef %10, ptr noundef @.str.202)
  %12 = icmp ne i32 %11, 0
  br i1 %12, label %19, label %13

13:                                               ; preds = %9
  %14 = load ptr, ptr %6, align 8
  %15 = getelementptr i8, ptr %14, i64 0
  %16 = load i8, ptr %15, align 1
  %17 = sext i8 %16 to i32
  %18 = icmp eq i32 %17, 48
  br i1 %18, label %19, label %23

19:                                               ; preds = %13, %9
  %20 = load ptr, ptr @stderr, align 8
  %21 = load ptr, ptr %4, align 8
  %22 = call i32 (ptr, i32, ptr, ...) @__fprintf_chk(ptr noundef %20, i32 noundef 2, ptr noundef @.str.203, ptr noundef %21)
  br label %23

23:                                               ; preds = %19, %13
  br label %24

24:                                               ; preds = %23, %3
  ret void
}