; Function Attrs: null_pointer_is_valid sspstrong uwtable
define internal fastcc void @validate_secrets_file(ptr noundef %0, i32 noundef %1, ptr noundef %2) unnamed_addr #0 {
  %4 = icmp eq i32 %1, 1414288203
  br i1 %4, label %5, label %13

5:                                                ; preds = %3
  %6 = tail call i32 @g_str_has_prefix(ptr noundef %2, ptr noundef nonnull @.str.202)
  %.not = icmp eq i32 %6, 0
  br i1 %.not, label %7, label %10

7:                                                ; preds = %5
  %8 = load i8, ptr %2, align 1
  %9 = icmp eq i8 %8, 48
  br i1 %9, label %10, label %13

10:                                               ; preds = %7, %5
  %11 = load ptr, ptr @stderr, align 8
  %12 = tail call i32 (ptr, i32, ptr, ...) @__fprintf_chk(ptr noundef %11, i32 noundef 2, ptr noundef nonnull @.str.203, ptr noundef %0)
  br label %13

13:                                               ; preds = %7, %10, %3
  ret void
}